; Function Attrs: mustprogress nounwind uwtable
define dso_local void @_ZN4node6crypto13KeyObjectData16CreateAsymmetricENS0_7KeyTypeERKNS0_14ManagedEVPPKeyE(ptr noalias nocapture writeonly sret(%"class.std::shared_ptr.7") align 8 %agg.result, i32 noundef %key_type, ptr nocapture noundef nonnull readonly align 8 dereferenceable(32) %pkey) local_unnamed_addr #3 align 2 {
entry:
  %pkey_.i = getelementptr inbounds i8, ptr %pkey, i64 8
  %0 = load ptr, ptr %pkey_.i, align 8
  %cmp.i.i.not = icmp eq ptr %0, null
  br i1 %cmp.i.i.not, label %do.body3, label %do.end4

do.body3:                                         ; preds = %entry
  tail call void @_ZN4node6AssertERKNS_13AssertionInfoE(ptr noundef nonnull align 8 dereferenceable(24) @_ZZN4node6crypto13KeyObjectData16CreateAsymmetricENS0_7KeyTypeERKNS0_14ManagedEVPPKeyEE4args) #24
  tail call void @abort() #25
  unreachable

do.end4:                                          ; preds = %entry
  %call5 = tail call noalias noundef nonnull dereferenceable(72) ptr @_Znwm(i64 noundef 72) #23
  store ptr getelementptr inbounds ({ [10 x ptr] }, ptr @_ZTVN4node6crypto13KeyObjectDataE, i64 0, i32 0, i64 2), ptr %call5, align 8
  %key_type_.i = getelementptr inbounds i8, ptr %call5, i64 8
  store i32 %key_type, ptr %key_type_.i, align 8
  %symmetric_key_.i = getelementptr inbounds i8, ptr %call5, i64 16
  %asymmetric_key_.i = getelementptr inbounds i8, ptr %call5, i64 40
  tail call void @llvm.memset.p0.i64(ptr noundef nonnull align 8 dereferenceable(24) %symmetric_key_.i, i8 0, i64 24, i1 false)
  store ptr getelementptr inbounds ({ [10 x ptr] }, ptr @_ZTVN4node6crypto14ManagedEVPPKeyE, i64 0, i32 0, i64 2), ptr %asymmetric_key_.i, align 8
  %pkey_.i.i = getelementptr inbounds i8, ptr %call5, i64 48
  tail call void @llvm.memset.p0.i64(ptr noundef nonnull align 8 dereferenceable(24) %pkey_.i.i, i8 0, i64 24, i1 false)
  %call.i.i = tail call noundef nonnull align 8 dereferenceable(32) ptr @_ZN4node6crypto14ManagedEVPPKeyaSERKS1_(ptr noundef nonnull align 8 dereferenceable(32) %asymmetric_key_.i, ptr noundef nonnull align 8 dereferenceable(32) %pkey)
  store ptr %call5, ptr %agg.result, align 8
  %_M_refcount.i.i = getelementptr inbounds i8, ptr %agg.result, i64 8
  %call.i.i.i.i = tail call noalias noundef nonnull dereferenceable(24) ptr @_Znwm(i64 noundef 24) #23
  %_M_use_count.i.i.i.i.i.i = getelementptr inbounds i8, ptr %call.i.i.i.i, i64 8
  store i32 1, ptr %_M_use_count.i.i.i.i.i.i, align 8
  %_M_weak_count.i.i.i.i.i.i = getelementptr inbounds i8, ptr %call.i.i.i.i, i64 12
  store i32 1, ptr %_M_weak_count.i.i.i.i.i.i, align 4
  store ptr getelementptr inbounds ({ [7 x ptr] }, ptr @_ZTVSt15_Sp_counted_ptrIPN4node6crypto13KeyObjectDataELN9__gnu_cxx12_Lock_policyE2EE, i64 0, i32 0, i64 2), ptr %call.i.i.i.i, align 8
  %_M_ptr.i.i.i.i.i = getelementptr inbounds i8, ptr %call.i.i.i.i, i64 16
  store ptr %call5, ptr %_M_ptr.i.i.i.i.i, align 8
  store ptr %call.i.i.i.i, ptr %_M_refcount.i.i, align 8
  ret void
}